target datalayout = "e-m:e-p270:32:32-p271:32:32-p272:64:64-i64:64-i128:128-f80:128-n8:16:32:64-S128"
target triple = "x86_64-pc-linux-gnu"

@Extra_Truth6ChangePhase.Truth6 = internal global [6 x i64] [i64 -6148914691236517206, i64 -3689348814741910324, i64 -1085102592571150096, i64 -71777214294589696, i64 -281470681808896, i64 -4294967296], align 16

; Function Attrs: nounwind uwtable
define i64 @Extra_Truth6ChangePhase(i64 noundef %0, i32 noundef %1) #0 {
  %3 = alloca i64, align 8
  %4 = alloca i32, align 4
  store i64 %0, ptr %3, align 8, !tbaa !13
  store i32 %1, ptr %4, align 4, !tbaa !9
  %5 = load i64, ptr %3, align 8, !tbaa !13
  %6 = load i32, ptr %4, align 4, !tbaa !9
  %7 = sext i32 %6 to i64
  %8 = getelementptr inbounds [6 x i64], ptr @Extra_Truth6ChangePhase.Truth6, i64 0, i64 %7
  %9 = load i64, ptr %8, align 8, !tbaa !13
  %10 = xor i64 %9, -1
  %11 = and i64 %5, %10
  %12 = load i32, ptr %4, align 4, !tbaa !9
  %13 = shl i32 1, %12
  %14 = zext i32 %13 to i64
  %15 = shl i64 %11, %14
  %16 = load i64, ptr %3, align 8, !tbaa !13
  %17 = load i32, ptr %4, align 4, !tbaa !9
  %18 = sext i32 %17 to i64
  %19 = getelementptr inbounds [6 x i64], ptr @Extra_Truth6ChangePhase.Truth6, i64 0, i64 %18
  %20 = load i64, ptr %19, align 8, !tbaa !13
  %21 = and i64 %16, %20
  %22 = load i32, ptr %4, align 4, !tbaa !9
  %23 = shl i32 1, %22
  %24 = zext i32 %23 to i64
  %25 = lshr i64 %21, %24
  %26 = or i64 %15, %25
  ret i64 %26
}