; Function Attrs: mustprogress nofree norecurse nosync nounwind willreturn memory(none) uwtable
define i64 @Extra_Truth6ChangePhase(i64 noundef %0, i32 noundef %1) local_unnamed_addr #4 {
  %3 = sext i32 %1 to i64
  %4 = getelementptr inbounds [6 x i64], ptr @Extra_Truth6ChangePhase.Truth6, i64 0, i64 %3
  %5 = load i64, ptr %4, align 8, !tbaa !10
  %6 = xor i64 %5, -1
  %7 = and i64 %0, %6
  %8 = shl nuw i32 1, %1
  %9 = zext i32 %8 to i64
  %10 = shl i64 %7, %9
  %11 = and i64 %5, %0
  %12 = lshr i64 %11, %9
  %13 = or i64 %10, %12
  ret i64 %13
}